Certificate:
    Data:
        Version: 3 (0x2)
        Serial Number: 1 (0x1)
    Signature Algorithm: sha256WithRSAEncryption
        Issuer: C=HK, ST=NT, L=Shatin, O=CUHK, OU=CA, CN=Certification Authority/emailAddress=ca@cuhk.edu.hk
        Validity
            Not Before: Feb 22 01:01:19 2018 GMT
            Not After : Feb 22 01:01:19 2019 GMT
        Subject: CN=Atif Khurshid and Ghous Ali Khan, ST=NT, C=HK/emailAddress=1155085457@link.cuhk.edu.hk, O=CUHK
        Subject Public Key Info:
            Public Key Algorithm: rsaEncryption
                Public-Key: (1024 bit)
                Modulus:
                    00:b1:ae:97:9a:1a:ec:f0:c3:a8:9b:d2:0a:6c:54:
                    c7:9d:13:e1:57:14:c5:04:d9:50:6c:d8:35:6a:0d:
                    0a:da:2d:7f:a4:7f:2c:5b:5c:7b:67:dc:61:64:6d:
                    a9:64:9b:90:28:da:5e:b1:84:80:37:85:f5:8d:95:
                    04:ee:18:cc:82:1f:42:3c:34:95:90:03:9c:c9:26:
                    bf:e6:d2:f8:44:b7:67:55:02:af:40:03:e3:dc:c1:
                    42:31:38:ba:70:2f:77:5f:6f:89:f5:f0:f0:c3:70:
                    35:ce:bb:d6:3e:a5:ec:f0:9f:e1:af:fe:1b:2b:c4:
                    2f:68:59:83:97:3e:d6:0e:89
                Exponent: 65537 (0x10001)
        X509v3 extensions:
            X509v3 Basic Constraints: 
                CA:FALSE
    Signature Algorithm: sha256WithRSAEncryption
         32:bf:ab:cb:18:2b:5e:97:e5:74:a9:c9:e8:2d:8c:70:d3:fd:
         00:cf:8a:61:60:67:f4:45:61:12:8f:e8:c9:34:14:fa:8d:f6:
         06:0b:dd:58:53:c1:d2:1b:a4:3b:55:7b:c1:ae:50:a1:10:74:
         af:be:22:e6:82:db:23:b8:65:db:94:44:42:9a:83:4c:88:58:
         53:ca:89:f9:a4:6f:f4:4f:b0:8f:0b:d4:de:1d:cb:60:d5:e2:
         27:8a:1a:1a:9a:27:5d:71:b2:c1:da:06:55:7b:d8:e3:26:8c:
         57:8d:0c:e6:d6:44:f5:8a:19:2f:c8:c5:2a:22:82:72:0e:60:
         44:bb
-----BEGIN CERTIFICATE-----
MIICjTCCAfagAwIBAgIBATANBgkqhkiG9w0BAQsFADCBiDELMAkGA1UEBhMCSEsx
CzAJBgNVBAgMAk5UMQ8wDQYDVQQHDAZTaGF0aW4xDTALBgNVBAoMBENVSEsxCzAJ
BgNVBAsMAkNBMSAwHgYDVQQDDBdDZXJ0aWZpY2F0aW9uIEF1dGhvcml0eTEdMBsG
CSqGSIb3DQEJARYOY2FAY3Voay5lZHUuaGswHhcNMTgwMjIyMDEwMTE5WhcNMTkw
MjIyMDEwMTE5WjCBgDEpMCcGA1UEAwwgQXRpZiBLaHVyc2hpZCBhbmQgR2hvdXMg
QWxpIEtoYW4xCzAJBgNVBAgMAk5UMQswCQYDVQQGEwJISzEqMCgGCSqGSIb3DQEJ
ARYbMTE1NTA4NTQ1N0BsaW5rLmN1aGsuZWR1LmhrMQ0wCwYDVQQKDARDVUhLMIGf
MA0GCSqGSIb3DQEBAQUAA4GNADCBiQKBgQCxrpeaGuzww6ib0gpsVMedE+FXFMUE
2VBs2DVqDQraLX+kfyxbXHtn3GFkbalkm5Ao2l6xhIA3hfWNlQTuGMyCH0I8NJWQ
A5zJJr/m0vhEt2dVAq9AA+PcwUIxOLpwL3dfb4n18PDDcDXOu9Y+pezwn+Gv/hsr
xC9oWYOXPtYOiQIDAQABow0wCzAJBgNVHRMEAjAAMA0GCSqGSIb3DQEBCwUAA4GB
ADK/q8sYK16X5XSpyegtjHDT/QDPimFgZ/RFYRKP6Mk0FPqN9gYL3VhTwdIbpDtV
e8GuUKEQdK++IuaC2yO4ZduUREKag0yIWFPKifmkb/RPsI8L1N4dy2DV4ieKGhqa
J11xssHaBlV72OMmjFeNDObWRPWKGS/IxSoignIOYES7
-----END CERTIFICATE-----
